target datalayout = "e-m:e-p270:32:32-p271:32:32-p272:64:64-i64:64-i128:128-f80:128-n8:16:32:64-S128"
target triple = "x86_64-pc-linux-gnu"

%struct.NavMeshSetHeader = type { i32, i32, i32, %struct.dtNavMeshParams }
%struct.dtNavMeshParams = type { [3 x float], float, float, i32, i32 }
%struct.NavMeshTileHeader = type { i32, i32 }

@.str.27 = private unnamed_addr constant [3 x i8] c"rb\00", align 1

; Function Attrs: mustprogress nounwind uwtable
define linkonce_odr dso_local noundef zeroext i1 @_Z14dtStatusFailedj(i32 noundef %0) #0 comdat {
  %2 = alloca i32, align 4
  store i32 %0, ptr %2, align 4
  %3 = load i32, ptr %2, align 4
  %4 = and i32 %3, -2147483648
  %5 = icmp ne i32 %4, 0
  ret i1 %5
}

; Function Attrs: mustprogress uwtable
define dso_local noundef ptr @_ZN6Sample7loadAllEPKc(ptr noundef nonnull align 8 dereferenceable(200) %0, ptr noundef %1) #2 align 2 {
  %3 = alloca ptr, align 8
  %4 = alloca ptr, align 8
  %5 = alloca ptr, align 8
  %6 = alloca ptr, align 8
  %7 = alloca %struct.NavMeshSetHeader, align 4
  %8 = alloca i64, align 8
  %9 = alloca ptr, align 8
  %10 = alloca i32, align 4
  %11 = alloca i32, align 4
  %12 = alloca %struct.NavMeshTileHeader, align 4
  %13 = alloca ptr, align 8
  store ptr %0, ptr %4, align 8
  store ptr %1, ptr %5, align 8
  %14 = load ptr, ptr %5, align 8
  %15 = call noalias ptr @fopen(ptr noundef %14, ptr noundef @.str.27)
  store ptr %15, ptr %6, align 8
  %16 = load ptr, ptr %6, align 8
  %17 = icmp ne ptr %16, null
  br i1 %17, label %19, label %18

18:                                               ; preds = %2
  store ptr null, ptr %3, align 8
  br label %120

19:                                               ; preds = %2
  %20 = load ptr, ptr %6, align 8
  %21 = call i64 @fread(ptr noundef %7, i64 noundef 40, i64 noundef 1, ptr noundef %20)
  store i64 %21, ptr %8, align 8
  %22 = load i64, ptr %8, align 8
  %23 = icmp ne i64 %22, 1
  br i1 %23, label %24, label %27

24:                                               ; preds = %19
  %25 = load ptr, ptr %6, align 8
  %26 = call i32 @fclose(ptr noundef %25)
  store ptr null, ptr %3, align 8
  br label %120

27:                                               ; preds = %19
  %28 = getelementptr inbounds %struct.NavMeshSetHeader, ptr %7, i32 0, i32 0
  %29 = load i32, ptr %28, align 4
  %30 = icmp ne i32 %29, 1297302868
  br i1 %30, label %31, label %34

31:                                               ; preds = %27
  %32 = load ptr, ptr %6, align 8
  %33 = call i32 @fclose(ptr noundef %32)
  store ptr null, ptr %3, align 8
  br label %120

34:                                               ; preds = %27
  %35 = getelementptr inbounds %struct.NavMeshSetHeader, ptr %7, i32 0, i32 1
  %36 = load i32, ptr %35, align 4
  %37 = icmp ne i32 %36, 1
  br i1 %37, label %38, label %41

38:                                               ; preds = %34
  %39 = load ptr, ptr %6, align 8
  %40 = call i32 @fclose(ptr noundef %39)
  store ptr null, ptr %3, align 8
  br label %120

41:                                               ; preds = %34
  %42 = call noundef ptr @_Z14dtAllocNavMeshv()
  store ptr %42, ptr %9, align 8
  %43 = load ptr, ptr %9, align 8
  %44 = icmp ne ptr %43, null
  br i1 %44, label %48, label %45

45:                                               ; preds = %41
  %46 = load ptr, ptr %6, align 8
  %47 = call i32 @fclose(ptr noundef %46)
  store ptr null, ptr %3, align 8
  br label %120

48:                                               ; preds = %41
  %49 = load ptr, ptr %9, align 8
  %50 = getelementptr inbounds %struct.NavMeshSetHeader, ptr %7, i32 0, i32 3
  %51 = call noundef i32 @_ZN9dtNavMesh4initEPK15dtNavMeshParams(ptr noundef nonnull align 8 dereferenceable(100) %49, ptr noundef %50)
  store i32 %51, ptr %10, align 4
  %52 = load i32, ptr %10, align 4
  %53 = call noundef zeroext i1 @_Z14dtStatusFailedj(i32 noundef %52)
  br i1 %53, label %54, label %57

54:                                               ; preds = %48
  %55 = load ptr, ptr %6, align 8
  %56 = call i32 @fclose(ptr noundef %55)
  store ptr null, ptr %3, align 8
  br label %120

57:                                               ; preds = %48
  store i32 0, ptr %11, align 4
  br label %58

58:                                               ; preds = %113, %57
  %59 = load i32, ptr %11, align 4
  %60 = getelementptr inbounds %struct.NavMeshSetHeader, ptr %7, i32 0, i32 2
  %61 = load i32, ptr %60, align 4
  %62 = icmp slt i32 %59, %61
  br i1 %62, label %63, label %116

63:                                               ; preds = %58
  %64 = load ptr, ptr %6, align 8
  %65 = call i64 @fread(ptr noundef %12, i64 noundef 8, i64 noundef 1, ptr noundef %64)
  store i64 %65, ptr %8, align 8
  %66 = load i64, ptr %8, align 8
  %67 = icmp ne i64 %66, 1
  br i1 %67, label %68, label %71

68:                                               ; preds = %63
  %69 = load ptr, ptr %6, align 8
  %70 = call i32 @fclose(ptr noundef %69)
  store ptr null, ptr %3, align 8
  br label %120

71:                                               ; preds = %63
  %72 = getelementptr inbounds %struct.NavMeshTileHeader, ptr %12, i32 0, i32 0
  %73 = load i32, ptr %72, align 4
  %74 = icmp ne i32 %73, 0
  br i1 %74, label %75, label %79

75:                                               ; preds = %71
  %76 = getelementptr inbounds %struct.NavMeshTileHeader, ptr %12, i32 0, i32 1
  %77 = load i32, ptr %76, align 4
  %78 = icmp ne i32 %77, 0
  br i1 %78, label %80, label %79

79:                                               ; preds = %75, %71
  br label %116

80:                                               ; preds = %75
  %81 = getelementptr inbounds %struct.NavMeshTileHeader, ptr %12, i32 0, i32 1
  %82 = load i32, ptr %81, align 4
  %83 = sext i32 %82 to i64
  %84 = call noundef ptr @_Z7dtAllocm11dtAllocHint(i64 noundef %83, i32 noundef 0)
  store ptr %84, ptr %13, align 8
  %85 = load ptr, ptr %13, align 8
  %86 = icmp ne ptr %85, null
  br i1 %86, label %88, label %87

87:                                               ; preds = %80
  br label %116

88:                                               ; preds = %80
  %89 = load ptr, ptr %13, align 8
  %90 = getelementptr inbounds %struct.NavMeshTileHeader, ptr %12, i32 0, i32 1
  %91 = load i32, ptr %90, align 4
  %92 = sext i32 %91 to i64
  call void @llvm.memset.p0.i64(ptr align 1 %89, i8 0, i64 %92, i1 false)
  %93 = load ptr, ptr %13, align 8
  %94 = getelementptr inbounds %struct.NavMeshTileHeader, ptr %12, i32 0, i32 1
  %95 = load i32, ptr %94, align 4
  %96 = sext i32 %95 to i64
  %97 = load ptr, ptr %6, align 8
  %98 = call i64 @fread(ptr noundef %93, i64 noundef %96, i64 noundef 1, ptr noundef %97)
  store i64 %98, ptr %8, align 8
  %99 = load i64, ptr %8, align 8
  %100 = icmp ne i64 %99, 1
  br i1 %100, label %101, label %105

101:                                              ; preds = %88
  %102 = load ptr, ptr %13, align 8
  call void @_Z6dtFreePv(ptr noundef %102)
  %103 = load ptr, ptr %6, align 8
  %104 = call i32 @fclose(ptr noundef %103)
  store ptr null, ptr %3, align 8
  br label %120

105:                                              ; preds = %88
  %106 = load ptr, ptr %9, align 8
  %107 = load ptr, ptr %13, align 8
  %108 = getelementptr inbounds %struct.NavMeshTileHeader, ptr %12, i32 0, i32 1
  %109 = load i32, ptr %108, align 4
  %110 = getelementptr inbounds %struct.NavMeshTileHeader, ptr %12, i32 0, i32 0
  %111 = load i32, ptr %110, align 4
  %112 = call noundef i32 @_ZN9dtNavMesh7addTileEPhiijPj(ptr noundef nonnull align 8 dereferenceable(100) %106, ptr noundef %107, i32 noundef %109, i32 noundef 1, i32 noundef %111, ptr noundef null)
  br label %113

113:                                              ; preds = %105
  %114 = load i32, ptr %11, align 4
  %115 = add nsw i32 %114, 1
  store i32 %115, ptr %11, align 4
  br label %58, !llvm.loop !13

116:                                              ; preds = %87, %79, %58
  %117 = load ptr, ptr %6, align 8
  %118 = call i32 @fclose(ptr noundef %117)
  %119 = load ptr, ptr %9, align 8
  store ptr %119, ptr %3, align 8
  br label %120

120:                                              ; preds = %116, %101, %68, %54, %45, %38, %31, %24, %18
  %121 = load ptr, ptr %3, align 8
  ret ptr %121
}