; Function Attrs: mustprogress uwtable
define dso_local noundef ptr @_ZN6Sample7loadAllEPKc(ptr nocapture noundef nonnull readnone align 8 dereferenceable(200) %0, ptr nocapture noundef readonly %1) local_unnamed_addr #3 align 2 {
  %3 = alloca %struct.NavMeshSetHeader, align 4
  %4 = alloca %struct.NavMeshTileHeader, align 4
  %5 = tail call noalias ptr @fopen(ptr noundef %1, ptr noundef nonnull @.str.27)
  %.not = icmp eq ptr %5, null
  br i1 %.not, label %55, label %6

6:                                                ; preds = %2
  %7 = call i64 @fread(ptr noundef nonnull %3, i64 noundef 40, i64 noundef 1, ptr noundef nonnull %5)
  %.not35 = icmp eq i64 %7, 1
  br i1 %.not35, label %10, label %8

8:                                                ; preds = %6
  %9 = tail call i32 @fclose(ptr noundef nonnull %5)
  br label %55

10:                                               ; preds = %6
  %11 = load i32, ptr %3, align 4
  %.not36 = icmp eq i32 %11, 1297302868
  br i1 %.not36, label %14, label %12

12:                                               ; preds = %10
  %13 = tail call i32 @fclose(ptr noundef nonnull %5)
  br label %55

14:                                               ; preds = %10
  %15 = getelementptr inbounds i8, ptr %3, i64 4
  %16 = load i32, ptr %15, align 4
  %.not37 = icmp eq i32 %16, 1
  br i1 %.not37, label %19, label %17

17:                                               ; preds = %14
  %18 = tail call i32 @fclose(ptr noundef nonnull %5)
  br label %55

19:                                               ; preds = %14
  %20 = tail call noundef ptr @_Z14dtAllocNavMeshv()
  %.not38 = icmp eq ptr %20, null
  br i1 %.not38, label %21, label %23

21:                                               ; preds = %19
  %22 = tail call i32 @fclose(ptr noundef nonnull %5)
  br label %55

23:                                               ; preds = %19
  %24 = getelementptr inbounds i8, ptr %3, i64 12
  %25 = call noundef i32 @_ZN9dtNavMesh4initEPK15dtNavMeshParams(ptr noundef nonnull align 8 dereferenceable(100) %20, ptr noundef nonnull %24)
  %26 = icmp slt i32 %25, 0
  br i1 %26, label %31, label %.preheader

.preheader:                                       ; preds = %23
  %27 = getelementptr inbounds i8, ptr %3, i64 8
  %28 = load i32, ptr %27, align 4
  %29 = icmp sgt i32 %28, 0
  br i1 %29, label %.lr.ph, label %._crit_edge

.lr.ph:                                           ; preds = %.preheader
  %30 = getelementptr inbounds i8, ptr %4, i64 4
  br label %33

31:                                               ; preds = %23
  %32 = call i32 @fclose(ptr noundef nonnull %5)
  br label %55

33:                                               ; preds = %.lr.ph, %49
  %.03042 = phi i32 [ 0, %.lr.ph ], [ %51, %49 ]
  %34 = call i64 @fread(ptr noundef nonnull %4, i64 noundef 8, i64 noundef 1, ptr noundef nonnull %5)
  %.not39 = icmp eq i64 %34, 1
  br i1 %.not39, label %37, label %35

35:                                               ; preds = %33
  %36 = call i32 @fclose(ptr noundef nonnull %5)
  br label %55

37:                                               ; preds = %33
  %38 = load i32, ptr %4, align 4
  %39 = icmp ne i32 %38, 0
  %40 = load i32, ptr %30, align 4
  %41 = icmp ne i32 %40, 0
  %or.cond = select i1 %39, i1 %41, i1 false
  br i1 %or.cond, label %42, label %._crit_edge

42:                                               ; preds = %37
  %43 = sext i32 %40 to i64
  %44 = call noundef ptr @_Z7dtAllocm11dtAllocHint(i64 noundef %43, i32 noundef 0)
  %.not40 = icmp eq ptr %44, null
  br i1 %.not40, label %._crit_edge, label %45

45:                                               ; preds = %42
  call void @llvm.memset.p0.i64(ptr nonnull align 1 %44, i8 0, i64 %43, i1 false)
  %46 = call i64 @fread(ptr noundef nonnull %44, i64 noundef %43, i64 noundef 1, ptr noundef nonnull %5)
  %.not41 = icmp eq i64 %46, 1
  br i1 %.not41, label %49, label %47

47:                                               ; preds = %45
  call void @_Z6dtFreePv(ptr noundef nonnull %44)
  %48 = call i32 @fclose(ptr noundef nonnull %5)
  br label %55

49:                                               ; preds = %45
  %50 = call noundef i32 @_ZN9dtNavMesh7addTileEPhiijPj(ptr noundef nonnull align 8 dereferenceable(100) %20, ptr noundef nonnull %44, i32 noundef %40, i32 noundef 1, i32 noundef %38, ptr noundef null)
  %51 = add nuw nsw i32 %.03042, 1
  %52 = load i32, ptr %27, align 4
  %53 = icmp slt i32 %51, %52
  br i1 %53, label %33, label %._crit_edge, !llvm.loop !12

._crit_edge:                                      ; preds = %49, %37, %42, %.preheader
  %54 = call i32 @fclose(ptr noundef nonnull %5)
  br label %55

55:                                               ; preds = %2, %._crit_edge, %47, %35, %31, %21, %17, %12, %8
  %.0 = phi ptr [ null, %8 ], [ null, %12 ], [ null, %17 ], [ null, %31 ], [ null, %35 ], [ null, %47 ], [ %20, %._crit_edge ], [ null, %21 ], [ null, %2 ]
  ret ptr %.0
}